; Function Attrs: mustprogress uwtable
define void @_ZN13sentencepiece20SentencePieceTrainer5TrainERKSt13unordered_mapINSt7__cxx1112basic_stringIcSt11char_traitsIcESaIcEEES7_St4hashIS7_ESt8equal_toIS7_ESaISt4pairIKS7_S7_EEEPNS_16SentenceIteratorEPS7_(ptr dead_on_unwind noalias writable sret(%"class.sentencepiece::util::Status") align 8 %0, ptr noundef nonnull readonly align 8 captures(none) dereferenceable(56) %1, ptr noundef %2, ptr noundef %3) local_unnamed_addr #3 align 2 personality ptr @__gxx_personality_v0 {
  %5 = alloca %"class.sentencepiece::TrainerSpec", align 8
  %6 = alloca %"class.sentencepiece::NormalizerSpec", align 8
  %7 = alloca %"class.sentencepiece::NormalizerSpec", align 8
  call void @llvm.lifetime.start.p0(i64 336, ptr nonnull %5) #26
  call void @_ZN13sentencepiece11TrainerSpecC2EPN6google8protobuf5ArenaE(ptr noundef nonnull align 8 dereferenceable(336) %5, ptr noundef null)
  call void @llvm.lifetime.start.p0(i64 80, ptr nonnull %6) #26
  invoke void @_ZN13sentencepiece14NormalizerSpecC2EPN6google8protobuf5ArenaE(ptr noundef nonnull align 8 dereferenceable(80) %6, ptr noundef null)
          to label %_ZN13sentencepiece14NormalizerSpecC2Ev.exit unwind label %10

_ZN13sentencepiece14NormalizerSpecC2Ev.exit:      ; preds = %4
  call void @llvm.lifetime.start.p0(i64 80, ptr nonnull %7) #26
  invoke void @_ZN13sentencepiece14NormalizerSpecC2EPN6google8protobuf5ArenaE(ptr noundef nonnull align 8 dereferenceable(80) %7, ptr noundef null)
          to label %_ZN13sentencepiece14NormalizerSpecC2Ev.exit12 unwind label %12

_ZN13sentencepiece14NormalizerSpecC2Ev.exit12:    ; preds = %_ZN13sentencepiece14NormalizerSpecC2Ev.exit
  invoke void @_ZN13sentencepiece20SentencePieceTrainer18MergeSpecsFromArgsERKSt13unordered_mapINSt7__cxx1112basic_stringIcSt11char_traitsIcESaIcEEES7_St4hashIS7_ESt8equal_toIS7_ESaISt4pairIKS7_S7_EEEPNS_11TrainerSpecEPNS_14NormalizerSpecESM_(ptr dead_on_unwind writable sret(%"class.sentencepiece::util::Status") align 8 %0, ptr noundef nonnull align 8 dereferenceable(56) %1, ptr noundef nonnull %5, ptr noundef nonnull %6, ptr noundef nonnull %7)
          to label %8 unwind label %14

8:                                                ; preds = %_ZN13sentencepiece14NormalizerSpecC2Ev.exit12
  %9 = load ptr, ptr %0, align 8, !tbaa !165
  %.not.i.i = icmp eq ptr %9, null
  br i1 %.not.i.i, label %16, label %.critedge

10:                                               ; preds = %4
  %11 = landingpad { ptr, i32 }
          cleanup
  br label %18

12:                                               ; preds = %_ZN13sentencepiece14NormalizerSpecC2Ev.exit
  %13 = landingpad { ptr, i32 }
          cleanup
  br label %17

14:                                               ; preds = %16, %_ZN13sentencepiece14NormalizerSpecC2Ev.exit12
  %15 = landingpad { ptr, i32 }
          cleanup
  call void @_ZN13sentencepiece14NormalizerSpecD1Ev(ptr noundef nonnull align 8 dereferenceable(80) %7) #26
  br label %17

16:                                               ; preds = %8
  call void @_ZN13sentencepiece4util6StatusD1Ev(ptr noundef nonnull align 8 dereferenceable(8) %0) #26
  invoke void @_ZN13sentencepiece20SentencePieceTrainer5TrainERKNS_11TrainerSpecERKNS_14NormalizerSpecES6_PNS_16SentenceIteratorEPNSt7__cxx1112basic_stringIcSt11char_traitsIcESaIcEEE(ptr dead_on_unwind nonnull writable sret(%"class.sentencepiece::util::Status") align 8 %0, ptr noundef nonnull align 8 dereferenceable(336) %5, ptr noundef nonnull align 8 dereferenceable(80) %6, ptr noundef nonnull align 8 dereferenceable(80) %7, ptr noundef %2, ptr noundef %3)
          to label %.critedge unwind label %14

.critedge:                                        ; preds = %8, %16
  call void @_ZN13sentencepiece14NormalizerSpecD1Ev(ptr noundef nonnull align 8 dereferenceable(80) %7) #26
  call void @llvm.lifetime.end.p0(i64 80, ptr nonnull %7) #26
  call void @_ZN13sentencepiece14NormalizerSpecD1Ev(ptr noundef nonnull align 8 dereferenceable(80) %6) #26
  call void @llvm.lifetime.end.p0(i64 80, ptr nonnull %6) #26
  call void @_ZN13sentencepiece11TrainerSpecD1Ev(ptr noundef nonnull align 8 dereferenceable(336) %5) #26
  call void @llvm.lifetime.end.p0(i64 336, ptr nonnull %5) #26
  ret void

17:                                               ; preds = %14, %12
  %.pn = phi { ptr, i32 } [ %15, %14 ], [ %13, %12 ]
  call void @llvm.lifetime.end.p0(i64 80, ptr nonnull %7) #26
  call void @_ZN13sentencepiece14NormalizerSpecD1Ev(ptr noundef nonnull align 8 dereferenceable(80) %6) #26
  br label %18

18:                                               ; preds = %17, %10
  %.pn.pn = phi { ptr, i32 } [ %.pn, %17 ], [ %11, %10 ]
  call void @llvm.lifetime.end.p0(i64 80, ptr nonnull %6) #26
  call void @_ZN13sentencepiece11TrainerSpecD1Ev(ptr noundef nonnull align 8 dereferenceable(336) %5) #26
  call void @llvm.lifetime.end.p0(i64 336, ptr nonnull %5) #26
  resume { ptr, i32 } %.pn.pn
}